; Function Attrs: mustprogress nounwind uwtable
define dso_local noundef ptr @_ZN5clang21OMPTaskyieldDirective11CreateEmptyERKNS_10ASTContextENS_4Stmt10EmptyShellE(ptr noundef nonnull align 8 dereferenceable(23096) %0) local_unnamed_addr #6 align 2 {
  %2 = tail call noundef ptr @_ZN5clang4StmtnwEmRKNS_10ASTContextEj(i64 noundef 32, ptr noundef nonnull align 8 dereferenceable(23096) %0, i32 noundef 8) #12
  store i8 -107, ptr %2, align 8
  %3 = load i8, ptr @_ZN5clang4Stmt17StatisticsEnabledE, align 1
  %4 = trunc i8 %3 to i1
  br i1 %4, label %5, label %_ZN5clang21OMPTaskyieldDirectiveC2Ev.exit

5:                                                ; preds = %1
  tail call void @_ZN5clang4Stmt12addStmtClassENS0_9StmtClassE(i32 noundef 149) #12
  br label %_ZN5clang21OMPTaskyieldDirectiveC2Ev.exit

_ZN5clang21OMPTaskyieldDirectiveC2Ev.exit:        ; preds = %1, %5
  %6 = getelementptr inbounds nuw i8, ptr %2, i64 8
  store i32 90, ptr %6, align 8
  %7 = getelementptr inbounds nuw i8, ptr %2, i64 12
  store i32 0, ptr %7, align 4
  %8 = getelementptr inbounds nuw i8, ptr %2, i64 16
  store i32 0, ptr %8, align 8
  %9 = getelementptr inbounds nuw i8, ptr %2, i64 24
  store ptr null, ptr %9, align 8
  ret ptr %2
}